; Function Attrs: mustprogress nounwind uwtable
define hidden void @_ZNK16reductionB_0Node4emitEP17C2_MacroAssemblerP13PhaseRegAlloc(ptr noundef nonnull align 8 dereferenceable(112) %0, ptr noundef %1, ptr noundef %2) unnamed_addr #3 align 2 {
  %4 = getelementptr inbounds i8, ptr %0, i64 72
  %5 = getelementptr inbounds i8, ptr %0, i64 80
  %6 = load ptr, ptr %5, align 8
  %7 = load ptr, ptr %6, align 8
  %8 = getelementptr inbounds i8, ptr %7, i64 8
  %9 = load ptr, ptr %8, align 8
  %10 = tail call noundef i32 %9(ptr noundef nonnull align 8 dereferenceable(8) %6) #23
  %11 = add i32 %10, 1
  %12 = getelementptr inbounds i8, ptr %0, i64 88
  %13 = load ptr, ptr %12, align 8
  %14 = load ptr, ptr %13, align 8
  %15 = getelementptr inbounds i8, ptr %14, i64 8
  %16 = load ptr, ptr %15, align 8
  %17 = tail call noundef i32 %16(ptr noundef nonnull align 8 dereferenceable(8) %13) #23
  %18 = add i32 %17, %11
  %19 = getelementptr inbounds i8, ptr %0, i64 96
  %20 = load ptr, ptr %19, align 8
  %21 = load ptr, ptr %20, align 8
  %22 = getelementptr inbounds i8, ptr %21, i64 8
  %23 = load ptr, ptr %22, align 8
  %24 = tail call noundef i32 %23(ptr noundef nonnull align 8 dereferenceable(8) %20) #23
  %25 = add i32 %24, %18
  %26 = load ptr, ptr %0, align 8
  %27 = getelementptr inbounds i8, ptr %26, i64 328
  %28 = load ptr, ptr %27, align 8
  %29 = tail call noundef i32 %28(ptr noundef nonnull align 8 dereferenceable(112) %0) #23
  %30 = load ptr, ptr %12, align 8
  %31 = tail call noundef i32 @_ZN7Matcher13vector_lengthEPK8MachNodePK8MachOper(ptr noundef nonnull %0, ptr noundef %30) #23
  %32 = load ptr, ptr %4, align 8
  %33 = load ptr, ptr %32, align 8
  %34 = getelementptr inbounds i8, ptr %33, i64 32
  %35 = load ptr, ptr %34, align 8
  %36 = tail call noundef i32 %35(ptr noundef nonnull align 8 dereferenceable(8) %32, ptr noundef %2, ptr noundef nonnull %0) #23
  %or.cond.i.i = icmp ult i32 %36, 32
  %spec.select.i.i = select i1 %or.cond.i.i, i32 %36, i32 -1
  %37 = load ptr, ptr %5, align 8
  %38 = load ptr, ptr %37, align 8
  %39 = getelementptr inbounds i8, ptr %38, i64 40
  %40 = load ptr, ptr %39, align 8
  %41 = tail call noundef i32 %40(ptr noundef nonnull align 8 dereferenceable(8) %37, ptr noundef %2, ptr noundef nonnull %0, i32 noundef 1) #23
  %or.cond.i.i19 = icmp ult i32 %41, 32
  %spec.select.i.i20 = select i1 %or.cond.i.i19, i32 %41, i32 -1
  %42 = load ptr, ptr %12, align 8
  %43 = load ptr, ptr %42, align 8
  %44 = getelementptr inbounds i8, ptr %43, i64 40
  %45 = load ptr, ptr %44, align 8
  %46 = tail call noundef i32 %45(ptr noundef nonnull align 8 dereferenceable(8) %42, ptr noundef %2, ptr noundef nonnull %0, i32 noundef %11) #23
  %or.cond.i.i21 = icmp ult i32 %46, 32
  %spec.select.i.i22 = select i1 %or.cond.i.i21, i32 %46, i32 -1
  %47 = load ptr, ptr %19, align 8
  %48 = load ptr, ptr %47, align 8
  %49 = getelementptr inbounds i8, ptr %48, i64 40
  %50 = load ptr, ptr %49, align 8
  %51 = tail call noundef i32 %50(ptr noundef nonnull align 8 dereferenceable(8) %47, ptr noundef %2, ptr noundef nonnull %0, i32 noundef %18) #23
  %or.cond.i.i23 = icmp ult i32 %51, 32
  %spec.select.i.i24 = select i1 %or.cond.i.i23, i32 %51, i32 -1
  %52 = getelementptr inbounds i8, ptr %0, i64 104
  %53 = load ptr, ptr %52, align 8
  %54 = load ptr, ptr %53, align 8
  %55 = getelementptr inbounds i8, ptr %54, i64 40
  %56 = load ptr, ptr %55, align 8
  %57 = tail call noundef i32 %56(ptr noundef nonnull align 8 dereferenceable(8) %53, ptr noundef %2, ptr noundef nonnull %0, i32 noundef %25) #23
  %or.cond.i.i25 = icmp ult i32 %57, 32
  %spec.select.i.i26 = select i1 %or.cond.i.i25, i32 %57, i32 -1
  tail call void @_ZN17C2_MacroAssembler7reduceBEii8RegisterS0_11XMMRegisterS1_S1_(ptr noundef nonnull align 8 dereferenceable(40) %1, i32 noundef %29, i32 noundef %31, i32 %spec.select.i.i, i32 %spec.select.i.i20, i32 %spec.select.i.i22, i32 %spec.select.i.i24, i32 %spec.select.i.i26) #23
  ret void
}